MPASM 5.67                         ACT11.ASM   5-4-2021  19:30:20         PAGE  1


LOC  OBJECT CODE     LINE SOURCE TEXT
  VALUE

                      00001  List P=16F84A                      ; Procesador PIC16f84A
                      00002     #include "p16f84a.inc"      ;Incluye las librerias 
                      00001         LIST
                      00002 
                      00003 ;==========================================================================
                      00004 ; Build date : Mar 21 2016
                      00005 ;  MPASM PIC16F84A processor include
                      00006 ; 
                      00007 ;  (c) Copyright 1999-2016 Microchip Technology, All rights reserved
                      00008 ;==========================================================================
                      00009 
                      00209         LIST
                      00003         
                      00004     ; CONFIGURACION DEL PIC16F84A
2007   3FF1           00005      __CONFIG _FOSC_XT & _WDTE_OFF & _PWRTE_ON & _CP_OFF
                      00006     
                      00007     ;Valores de definidos 
                      00008     ;Periodo_10ms EQU d'216';  39*256= 9984us ~ 10ms
                      00009     CBLOCK 0x0C         ;Bloque de variables asignadas a partir de 0x0C
  0000000C            00010         test_bucle         ;Variable verificacion del bucle
  0000000D            00011         Salida
  0000000E            00012         Periodo_10ms
                      00013     ENDC  
                      00014     ;CODIGO
0000                  00015         ORG     00h
0000   2805           00016         GOTO    INICIO
0004                  00017         ORG     04h
0004   2810           00018         GOTO    INT1CS  
Warning[207]: Found label after column 1. (INICIO)
0005                  00019     INICIO
0005   1683           00020         BSF     STATUS,RP0
0006   018D           00021         CLRF    Salida
0007   3007           00022         MOVLW   B'00000111'; 256 PRESCALER TMR0
Message[302]: Register in operand not in bank 0.  Ensure that bank bits are correct.
0008   0081           00023         MOVWF   OPTION_REG 
0009   1283           00024         BCF     STATUS,RP0
000A   30A0           00025         MOVLW   B'10100000'
000B   008B           00026         MOVWF   INTCON      ;Habiltar timer0 y global respectivamente (T0IE - GIE) 
000C   30D8           00027         MOVLW   d'216'      ;39*256= 9984us ~ 10ms
000D   008E           00028         MOVWF   Periodo_10ms
Warning[207]: Found label after column 1. (BUCLE)
000E                  00029     BUCLE           
Message[305]: Using default destination of 1 (file).
000E   0A8C           00030         INCF    test_bucle  ;test
000F   280E           00031         GOTO    BUCLE   
                      00032     ;INTERRUPCION
Warning[207]: Found label after column 1. (INT1CS)
0010                  00033     INT1CS
0010   300E           00034         MOVLW   Periodo_10ms    
0011   0081           00035         MOVWF   TMR0
Message[305]: Using default destination of 1 (file).
0012   0A8D           00036         INCF    Salida      ;Contador de salida
0013   2814           00037         GOTO    FIN_INT   
MPASM 5.67                         ACT11.ASM   5-4-2021  19:30:20         PAGE  2


LOC  OBJECT CODE     LINE SOURCE TEXT
  VALUE

Warning[207]: Found label after column 1. (FIN_INT)
0014                  00038     FIN_INT
0014   110B           00039         BCF     INTCON,T0IF
0015   0009           00040         RETFIE      ;GIE
                      00041         END
MPASM 5.67                         ACT11.ASM   5-4-2021  19:30:20         PAGE  3


SYMBOL TABLE
  LABEL                             VALUE 

BUCLE                             0000000E
C                                 00000000
DC                                00000001
EEADR                             00000009
EECON1                            00000088
EECON2                            00000089
EEDATA                            00000008
EEIE                              00000006
EEIF                              00000004
F                                 00000001
FIN_INT                           00000014
FSR                               00000004
GIE                               00000007
INDF                              00000000
INICIO                            00000005
INT1CS                            00000010
INTCON                            0000000B
INTE                              00000004
INTEDG                            00000006
INTF                              00000001
IRP                               00000007
NOT_PD                            00000003
NOT_RBPU                          00000007
NOT_TO                            00000004
OPTION_REG                        00000081
PCL                               00000002
PCLATH                            0000000A
PORTA                             00000005
PORTB                             00000006
PS0                               00000000
PS1                               00000001
PS2                               00000002
PSA                               00000003
Periodo_10ms                      0000000E
RA0                               00000000
RA1                               00000001
RA2                               00000002
RA3                               00000003
RA4                               00000004
RB0                               00000000
RB1                               00000001
RB2                               00000002
RB3                               00000003
RB4                               00000004
RB5                               00000005
RB6                               00000006
RB7                               00000007
RBIE                              00000003
RBIF                              00000000
RD                                00000000
RP0                               00000005
RP1                               00000006
STATUS                            00000003
MPASM 5.67                         ACT11.ASM   5-4-2021  19:30:20         PAGE  4


SYMBOL TABLE
  LABEL                             VALUE 

Salida                            0000000D
T0CS                              00000005
T0IE                              00000005
T0IF                              00000002
T0SE                              00000004
TMR0                              00000001
TMR0IE                            00000005
TMR0IF                            00000002
TRISA                             00000085
TRISA0                            00000000
TRISA1                            00000001
TRISA2                            00000002
TRISA3                            00000003
TRISA4                            00000004
TRISB                             00000086
TRISB0                            00000000
TRISB1                            00000001
TRISB2                            00000002
TRISB3                            00000003
TRISB4                            00000004
TRISB5                            00000005
TRISB6                            00000006
TRISB7                            00000007
W                                 00000000
WR                                00000001
WREN                              00000002
WRERR                             00000003
Z                                 00000002
_CONFIG                           00002007
_CP_OFF                           00003FFF
_CP_ON                            0000000F
_DEVID1                           00002006
_FOSC_EXTRC                       00003FFF
_FOSC_HS                          00003FFE
_FOSC_LP                          00003FFC
_FOSC_XT                          00003FFD
_HS_OSC                           00003FFE
_IDLOC0                           00002000
_IDLOC1                           00002001
_IDLOC2                           00002002
_IDLOC3                           00002003
_LP_OSC                           00003FFC
_PWRTE_OFF                        00003FFF
_PWRTE_ON                         00003FF7
_RC_OSC                           00003FFF
_WDTE_OFF                         00003FFB
_WDTE_ON                          00003FFF
_WDT_OFF                          00003FFB
_WDT_ON                           00003FFF
_XT_OSC                           00003FFD
__16F84A                          00000001
__DEBUG                           
__MPLAB_DEBUGGER_SIMULATOR        1
MPASM 5.67                         ACT11.ASM   5-4-2021  19:30:20         PAGE  5


SYMBOL TABLE
  LABEL                             VALUE 

test_bucle                        0000000C


MEMORY USAGE MAP ('X' = Used,  '-' = Unused)

0000 : X---XXXXXXXXXXXX XXXXXX---------- ---------------- ----------------
2000 : -------X-------- ---------------- ---------------- ----------------

All other memory blocks unused.

Program Memory Words Used:    19
Program Memory Words Free:  1005


Errors   :     0
Warnings :     4 reported,     0 suppressed
Messages :     3 reported,     0 suppressed

