MPASM 5.67                          ACT9.ASM   5-3-2021  20:11:09         PAGE  1


LOC  OBJECT CODE     LINE SOURCE TEXT
  VALUE

                      00001     ;Subrutina Retcs---
                      00002     ;Haremos los calculos para un temporizador de 1ms con un prescaler de 64.
                      00003     ;Temporizador = Tcm * Prescaler (256 - Carga_TMR0)
                      00004     ;0,01 s = 10ms = 10000us => 1us * 64 (256 - Carga_TMR0)
                      00005     ;64 * Carga_TMR0 = 16384 - 10000
                      00006     ;Carga_TMR0 = 99.75 = 100
                      00007     ;Necesitamos que el valor de Carga_TMR0 sea 100 para un prescaler de 64     
                      00008     List P=16F84A                           ; Procesador PIC16f84A
                      00009     #include "p16f84a.inc"                  ;Incluye las librerias 
                      00001         LIST
                      00002 
                      00003 ;==========================================================================
                      00004 ; Build date : Mar 21 2016
                      00005 ;  MPASM PIC16F84A processor include
                      00006 ; 
                      00007 ;  (c) Copyright 1999-2016 Microchip Technology, All rights reserved
                      00008 ;==========================================================================
                      00009 
                      00209         LIST
                      00010     ; CONFIGURACION DEL PIC16F84A
2007   3FF1           00011         __CONFIG _FOSC_XT & _WDTE_OFF & _PWRTE_ON & _CP_OFF
                      00012     
                      00013     ;Definimos Variables 
                      00014     CBLOCK              0x0C
  0000000C            00015         TMR0_Carga10ms          
  0000000D            00016         TimerN                  ;Variable N veces 10ms
  0000000E            00017         TimerN_temp
  0000000F            00018         Control                 ;Variable de control, bit 0
                      00019     ENDC
                      00020     ;CODIGO
0000                  00021         ORG             0
Warning[207]: Found label after column 1. (INICIO)
0000                  00022     INICIO
0000   1683           00023         bsf     STATUS,RP0
0001   3005           00024         movlw   b'00000101'
Message[302]: Register in operand not in bank 0.  Ensure that bank bits are correct.
0002   0081           00025         movwf   OPTION_REG      ;Prescaler de 64 asignado al TMR0
0003   1283           00026         bcf     STATUS,RP0
0004   3064           00027         movlw   d'100'          ;100
0005   008C           00028         movwf   TMR0_Carga10ms
Warning[207]: Found label after column 1. (START)
0006                  00029     START
0006   3001           00030         movlw   b'00000001'
0007   008F           00031         movwf   Control
0008   3003           00032         movlw   d'3'            ; N veces que se jecutará el Retcs
0009   280F           00033         goto    RetNcs          ;Llamamos a la funcion de retardo de 10ms (1 centésima de segundo)
Warning[207]: Found label after column 1. (Retcs)
000A                  00034     Retcs
000A   300C           00035         movlw   TMR0_Carga10ms  ;Carga el Timer0 con el valor que queremos para 10ms
000B   0081           00036         movwf   TMR0
000C   110B           00037         bcf     INTCON,T0IF     ;Reseteamos el Flag de desbordamiento del TMR0
Warning[207]: Found label after column 1. (Timer0_Desbordamiento)
000D                  00038     Timer0_Desbordamiento
MPASM 5.67                          ACT9.ASM   5-3-2021  20:11:09         PAGE  2


LOC  OBJECT CODE     LINE SOURCE TEXT
  VALUE

000D   1D0B           00039         btfss   INTCON,T0IF     ;Comprobamos el desbordamiento en el TMR0
000E   280D           00040         goto    Timer0_Desbordamiento   ;Si aún no se ha desbordado repite la operacion 
Warning[207]: Found label after column 1. (RetNcs)
000F                  00041     RetNcs
000F   180F           00042         btfsc   Control,0           ;Si el bit de control es uno cargamos W en TimerN.                  
                                        
0010   008D           00043         movwf   TimerN              ;Esta intruccion solo se ejecuta la primera vez que entra en RetNcs
0011   100F           00044         bcf     Control,0           ;Limpiamos el bit de control para que no se ejecute mas
0012   0B8D           00045         decfsz  TimerN,F
0013   200A           00046         call    Retcs 
                      00047         END
MPASM 5.67                          ACT9.ASM   5-3-2021  20:11:09         PAGE  3


SYMBOL TABLE
  LABEL                             VALUE 

C                                 00000000
Control                           0000000F
DC                                00000001
EEADR                             00000009
EECON1                            00000088
EECON2                            00000089
EEDATA                            00000008
EEIE                              00000006
EEIF                              00000004
F                                 00000001
FSR                               00000004
GIE                               00000007
INDF                              00000000
INICIO                            00000000
INTCON                            0000000B
INTE                              00000004
INTEDG                            00000006
INTF                              00000001
IRP                               00000007
NOT_PD                            00000003
NOT_RBPU                          00000007
NOT_TO                            00000004
OPTION_REG                        00000081
PCL                               00000002
PCLATH                            0000000A
PORTA                             00000005
PORTB                             00000006
PS0                               00000000
PS1                               00000001
PS2                               00000002
PSA                               00000003
RA0                               00000000
RA1                               00000001
RA2                               00000002
RA3                               00000003
RA4                               00000004
RB0                               00000000
RB1                               00000001
RB2                               00000002
RB3                               00000003
RB4                               00000004
RB5                               00000005
RB6                               00000006
RB7                               00000007
RBIE                              00000003
RBIF                              00000000
RD                                00000000
RP0                               00000005
RP1                               00000006
RetNcs                            0000000F
Retcs                             0000000A
START                             00000006
STATUS                            00000003
MPASM 5.67                          ACT9.ASM   5-3-2021  20:11:09         PAGE  4


SYMBOL TABLE
  LABEL                             VALUE 

T0CS                              00000005
T0IE                              00000005
T0IF                              00000002
T0SE                              00000004
TMR0                              00000001
TMR0IE                            00000005
TMR0IF                            00000002
TMR0_Carga10ms                    0000000C
TRISA                             00000085
TRISA0                            00000000
TRISA1                            00000001
TRISA2                            00000002
TRISA3                            00000003
TRISA4                            00000004
TRISB                             00000086
TRISB0                            00000000
TRISB1                            00000001
TRISB2                            00000002
TRISB3                            00000003
TRISB4                            00000004
TRISB5                            00000005
TRISB6                            00000006
TRISB7                            00000007
Timer0_Desbordamiento             0000000D
TimerN                            0000000D
TimerN_temp                       0000000E
W                                 00000000
WR                                00000001
WREN                              00000002
WRERR                             00000003
Z                                 00000002
_CONFIG                           00002007
_CP_OFF                           00003FFF
_CP_ON                            0000000F
_DEVID1                           00002006
_FOSC_EXTRC                       00003FFF
_FOSC_HS                          00003FFE
_FOSC_LP                          00003FFC
_FOSC_XT                          00003FFD
_HS_OSC                           00003FFE
_IDLOC0                           00002000
_IDLOC1                           00002001
_IDLOC2                           00002002
_IDLOC3                           00002003
_LP_OSC                           00003FFC
_PWRTE_OFF                        00003FFF
_PWRTE_ON                         00003FF7
_RC_OSC                           00003FFF
_WDTE_OFF                         00003FFB
_WDTE_ON                          00003FFF
_WDT_OFF                          00003FFB
_WDT_ON                           00003FFF
_XT_OSC                           00003FFD
MPASM 5.67                          ACT9.ASM   5-3-2021  20:11:09         PAGE  5


SYMBOL TABLE
  LABEL                             VALUE 

__16F84A                          00000001


MEMORY USAGE MAP ('X' = Used,  '-' = Unused)

0000 : XXXXXXXXXXXXXXXX XXXX------------ ---------------- ----------------
2000 : -------X-------- ---------------- ---------------- ----------------

All other memory blocks unused.

Program Memory Words Used:    20
Program Memory Words Free:  1004


Errors   :     0
Warnings :     5 reported,     0 suppressed
Messages :     1 reported,     0 suppressed

